target datalayout = "e-m:e-p270:32:32-p271:32:32-p272:64:64-i64:64-i128:128-f80:128-n8:16:32:64-S128"
target triple = "x86_64-pc-linux-gnu"

%class.bit_matrix = type { %class.region, i32, i32, %class.ptr_vector }
%class.region = type { ptr, ptr, ptr, ptr, ptr }
%class.ptr_vector = type { %class.vector }
%class.vector = type { ptr }

; Function Attrs: mustprogress nounwind uwtable
define linkonce_odr hidden void @_ZN6vectorIPmLb0EjE5resetEv(ptr noundef nonnull align 8 dereferenceable(8) %0) #5 comdat align 2 {
  %2 = alloca ptr, align 8
  store ptr %0, ptr %2, align 8, !tbaa !49
  %3 = load ptr, ptr %2, align 8
  %4 = getelementptr inbounds nuw %class.vector, ptr %3, i32 0, i32 0
  %5 = load ptr, ptr %4, align 8, !tbaa !51
  %6 = icmp ne ptr %5, null
  br i1 %6, label %7, label %11

7:                                                ; preds = %1
  %8 = getelementptr inbounds nuw %class.vector, ptr %3, i32 0, i32 0
  %9 = load ptr, ptr %8, align 8, !tbaa !51
  %10 = getelementptr inbounds i32, ptr %9, i64 -1
  store i32 0, ptr %10, align 4, !tbaa !40
  br label %11

11:                                               ; preds = %7, %1
  ret void
}

; Function Attrs: mustprogress uwtable
define hidden void @_ZN10bit_matrix5resetEj(ptr noundef nonnull align 8 dereferenceable(56) %0, i32 noundef %1) #4 align 2 {
  %3 = alloca ptr, align 8
  %4 = alloca i32, align 4
  store ptr %0, ptr %3, align 8, !tbaa !13
  store i32 %1, ptr %4, align 4, !tbaa !40
  %5 = load ptr, ptr %3, align 8
  %6 = getelementptr inbounds nuw %class.bit_matrix, ptr %5, i32 0, i32 0
  call void @_ZN6region5resetEv(ptr noundef nonnull align 8 dereferenceable(40) %6)
  %7 = getelementptr inbounds nuw %class.bit_matrix, ptr %5, i32 0, i32 3
  call void @_ZN6vectorIPmLb0EjE5resetEv(ptr noundef nonnull align 8 dereferenceable(8) %7)
  %8 = load i32, ptr %4, align 4, !tbaa !40
  %9 = getelementptr inbounds nuw %class.bit_matrix, ptr %5, i32 0, i32 1
  store i32 %8, ptr %9, align 8, !tbaa !21
  %10 = load i32, ptr %4, align 4, !tbaa !40
  %11 = add i32 %10, 63
  %12 = udiv i32 %11, 64
  %13 = getelementptr inbounds nuw %class.bit_matrix, ptr %5, i32 0, i32 2
  store i32 %12, ptr %13, align 4, !tbaa !48
  ret void
}