; Function Attrs: mustprogress uwtable
define hidden void @_ZN10bit_matrix5resetEj(ptr noundef nonnull align 8 dereferenceable(56) %0, i32 noundef %1) local_unnamed_addr #6 align 2 {
  tail call void @_ZN6region5resetEv(ptr noundef nonnull align 8 dereferenceable(40) %0)
  %3 = getelementptr inbounds nuw i8, ptr %0, i64 48
  %4 = load ptr, ptr %3, align 8, !tbaa !32
  %.not.i = icmp eq ptr %4, null
  br i1 %.not.i, label %_ZN6vectorIPmLb0EjE5resetEv.exit, label %5

5:                                                ; preds = %2
  %6 = getelementptr inbounds i8, ptr %4, i64 -4
  store i32 0, ptr %6, align 4, !tbaa !33
  br label %_ZN6vectorIPmLb0EjE5resetEv.exit

_ZN6vectorIPmLb0EjE5resetEv.exit:                 ; preds = %2, %5
  %7 = getelementptr inbounds nuw i8, ptr %0, i64 40
  store i32 %1, ptr %7, align 8, !tbaa !19
  %8 = add i32 %1, 63
  %9 = lshr i32 %8, 6
  %10 = getelementptr inbounds nuw i8, ptr %0, i64 44
  store i32 %9, ptr %10, align 4, !tbaa !34
  ret void
}